target datalayout = "e-m:e-p270:32:32-p271:32:32-p272:64:64-i64:64-i128:128-f80:128-n8:16:32:64-S128"
target triple = "x86_64-pc-linux-gnu"

%struct.refspec_item = type { i8, ptr, ptr, ptr }
%struct.refspec = type { ptr, i32, i32, i32 }

@.str.2 = private unnamed_addr constant [5 x i8] c"%.*s\00", align 1

; Function Attrs: nounwind uwtable
define dso_local void @refspec_ref_prefixes(ptr noundef %0, ptr noundef %1) #0 {
  %3 = alloca ptr, align 8
  %4 = alloca ptr, align 8
  %5 = alloca i32, align 4
  %6 = alloca ptr, align 8
  %7 = alloca ptr, align 8
  %8 = alloca i32, align 4
  %9 = alloca ptr, align 8
  store ptr %0, ptr %3, align 8, !tbaa !43
  store ptr %1, ptr %4, align 8, !tbaa !58
  call void @llvm.lifetime.start.p0(i64 4, ptr %5) #10
  store i32 0, ptr %5, align 4, !tbaa !11
  br label %10

10:                                               ; preds = %103, %2
  %11 = load i32, ptr %5, align 4, !tbaa !11
  %12 = load ptr, ptr %3, align 8, !tbaa !43
  %13 = getelementptr inbounds nuw %struct.refspec, ptr %12, i32 0, i32 2
  %14 = load i32, ptr %13, align 4, !tbaa !47
  %15 = icmp slt i32 %11, %14
  br i1 %15, label %16, label %106

16:                                               ; preds = %10
  call void @llvm.lifetime.start.p0(i64 8, ptr %6) #10
  %17 = load ptr, ptr %3, align 8, !tbaa !43
  %18 = getelementptr inbounds nuw %struct.refspec, ptr %17, i32 0, i32 0
  %19 = load ptr, ptr %18, align 8, !tbaa !49
  %20 = load i32, ptr %5, align 4, !tbaa !11
  %21 = sext i32 %20 to i64
  %22 = getelementptr inbounds %struct.refspec_item, ptr %19, i64 %21
  store ptr %22, ptr %6, align 8, !tbaa !4
  call void @llvm.lifetime.start.p0(i64 8, ptr %7) #10
  store ptr null, ptr %7, align 8, !tbaa !9
  %23 = load ptr, ptr %6, align 8, !tbaa !4
  %24 = load i8, ptr %23, align 8
  %25 = lshr i8 %24, 3
  %26 = and i8 %25, 1
  %27 = zext i8 %26 to i32
  %28 = icmp ne i32 %27, 0
  br i1 %28, label %36, label %29

29:                                               ; preds = %16
  %30 = load ptr, ptr %6, align 8, !tbaa !4
  %31 = load i8, ptr %30, align 8
  %32 = lshr i8 %31, 4
  %33 = and i8 %32, 1
  %34 = zext i8 %33 to i32
  %35 = icmp ne i32 %34, 0
  br i1 %35, label %36, label %37

36:                                               ; preds = %29, %16
  store i32 4, ptr %8, align 4
  br label %100

37:                                               ; preds = %29
  %38 = load ptr, ptr %3, align 8, !tbaa !43
  %39 = getelementptr inbounds nuw %struct.refspec, ptr %38, i32 0, i32 3
  %40 = load i32, ptr %39, align 8, !tbaa !45
  %41 = icmp eq i32 %40, 1
  br i1 %41, label %42, label %46

42:                                               ; preds = %37
  %43 = load ptr, ptr %6, align 8, !tbaa !4
  %44 = getelementptr inbounds nuw %struct.refspec_item, ptr %43, i32 0, i32 1
  %45 = load ptr, ptr %44, align 8, !tbaa !19
  store ptr %45, ptr %7, align 8, !tbaa !9
  br label %73

46:                                               ; preds = %37
  %47 = load ptr, ptr %6, align 8, !tbaa !4
  %48 = getelementptr inbounds nuw %struct.refspec_item, ptr %47, i32 0, i32 2
  %49 = load ptr, ptr %48, align 8, !tbaa !18
  %50 = icmp ne ptr %49, null
  br i1 %50, label %51, label %55

51:                                               ; preds = %46
  %52 = load ptr, ptr %6, align 8, !tbaa !4
  %53 = getelementptr inbounds nuw %struct.refspec_item, ptr %52, i32 0, i32 2
  %54 = load ptr, ptr %53, align 8, !tbaa !18
  store ptr %54, ptr %7, align 8, !tbaa !9
  br label %72

55:                                               ; preds = %46
  %56 = load ptr, ptr %6, align 8, !tbaa !4
  %57 = getelementptr inbounds nuw %struct.refspec_item, ptr %56, i32 0, i32 1
  %58 = load ptr, ptr %57, align 8, !tbaa !19
  %59 = icmp ne ptr %58, null
  br i1 %59, label %60, label %71

60:                                               ; preds = %55
  %61 = load ptr, ptr %6, align 8, !tbaa !4
  %62 = load i8, ptr %61, align 8
  %63 = lshr i8 %62, 3
  %64 = and i8 %63, 1
  %65 = zext i8 %64 to i32
  %66 = icmp ne i32 %65, 0
  br i1 %66, label %71, label %67

67:                                               ; preds = %60
  %68 = load ptr, ptr %6, align 8, !tbaa !4
  %69 = getelementptr inbounds nuw %struct.refspec_item, ptr %68, i32 0, i32 1
  %70 = load ptr, ptr %69, align 8, !tbaa !19
  store ptr %70, ptr %7, align 8, !tbaa !9
  br label %71

71:                                               ; preds = %67, %60, %55
  br label %72

72:                                               ; preds = %71, %51
  br label %73

73:                                               ; preds = %72, %42
  %74 = load ptr, ptr %7, align 8, !tbaa !9
  %75 = icmp ne ptr %74, null
  br i1 %75, label %77, label %76

76:                                               ; preds = %73
  store i32 4, ptr %8, align 4
  br label %100

77:                                               ; preds = %73
  %78 = load ptr, ptr %6, align 8, !tbaa !4
  %79 = load i8, ptr %78, align 8
  %80 = lshr i8 %79, 1
  %81 = and i8 %80, 1
  %82 = zext i8 %81 to i32
  %83 = icmp ne i32 %82, 0
  br i1 %83, label %84, label %96

84:                                               ; preds = %77
  call void @llvm.lifetime.start.p0(i64 8, ptr %9) #10
  %85 = load ptr, ptr %7, align 8, !tbaa !9
  %86 = call ptr @strchr(ptr noundef %85, i32 noundef 42) #11
  store ptr %86, ptr %9, align 8, !tbaa !9
  %87 = load ptr, ptr %4, align 8, !tbaa !58
  %88 = load ptr, ptr %9, align 8, !tbaa !9
  %89 = load ptr, ptr %7, align 8, !tbaa !9
  %90 = ptrtoint ptr %88 to i64
  %91 = ptrtoint ptr %89 to i64
  %92 = sub i64 %90, %91
  %93 = trunc i64 %92 to i32
  %94 = load ptr, ptr %7, align 8, !tbaa !9
  %95 = call ptr (ptr, ptr, ...) @strvec_pushf(ptr noundef %87, ptr noundef @.str.2, i32 noundef %93, ptr noundef %94)
  call void @llvm.lifetime.end.p0(i64 8, ptr %9) #10
  br label %99

96:                                               ; preds = %77
  %97 = load ptr, ptr %4, align 8, !tbaa !58
  %98 = load ptr, ptr %7, align 8, !tbaa !9
  call void @expand_ref_prefix(ptr noundef %97, ptr noundef %98)
  br label %99

99:                                               ; preds = %96, %84
  store i32 0, ptr %8, align 4
  br label %100

100:                                              ; preds = %99, %76, %36
  call void @llvm.lifetime.end.p0(i64 8, ptr %7) #10
  call void @llvm.lifetime.end.p0(i64 8, ptr %6) #10
  %101 = load i32, ptr %8, align 4
  switch i32 %101, label %107 [
    i32 0, label %102
    i32 4, label %103
  ]

102:                                              ; preds = %100
  br label %103

103:                                              ; preds = %102, %100
  %104 = load i32, ptr %5, align 4, !tbaa !11
  %105 = add nsw i32 %104, 1
  store i32 %105, ptr %5, align 4, !tbaa !11
  br label %10, !llvm.loop !60

106:                                              ; preds = %10
  call void @llvm.lifetime.end.p0(i64 4, ptr %5) #10
  ret void

107:                                              ; preds = %100
  unreachable
}