; Function Attrs: nounwind uwtable
define dso_local void @refspec_ref_prefixes(ptr noundef readonly captures(none) %0, ptr noundef %1) local_unnamed_addr #0 {
  %3 = getelementptr inbounds nuw i8, ptr %0, i64 12
  %4 = load i32, ptr %3, align 4, !tbaa !42
  %5 = icmp sgt i32 %4, 0
  br i1 %5, label %.lr.ph, label %._crit_edge

.lr.ph:                                           ; preds = %2
  %6 = getelementptr inbounds nuw i8, ptr %0, i64 16
  br label %7

7:                                                ; preds = %.lr.ph, %28
  %indvars.iv = phi i64 [ 0, %.lr.ph ], [ %indvars.iv.next, %28 ]
  %8 = load ptr, ptr %0, align 8, !tbaa !44
  %9 = getelementptr inbounds nuw %struct.refspec_item, ptr %8, i64 %indvars.iv
  %10 = load i8, ptr %9, align 8
  %11 = and i8 %10, 24
  %or.cond = icmp eq i8 %11, 0
  br i1 %or.cond, label %12, label %28

12:                                               ; preds = %7
  %13 = load i32, ptr %6, align 8, !tbaa !39
  %14 = icmp eq i32 %13, 1
  br i1 %14, label %18, label %15

15:                                               ; preds = %12
  %16 = getelementptr inbounds nuw i8, ptr %9, i64 16
  %17 = load ptr, ptr %16, align 8, !tbaa !12
  %.not26 = icmp eq ptr %17, null
  br i1 %.not26, label %18, label %.thread

18:                                               ; preds = %15, %12
  %.022.in = getelementptr inbounds nuw i8, ptr %9, i64 8
  %.022 = load ptr, ptr %.022.in, align 8, !tbaa !13
  %.not28 = icmp eq ptr %.022, null
  br i1 %.not28, label %28, label %.thread

.thread:                                          ; preds = %15, %18
  %.02232 = phi ptr [ %.022, %18 ], [ %17, %15 ]
  %19 = and i8 %10, 2
  %.not29 = icmp eq i8 %19, 0
  br i1 %.not29, label %27, label %20

20:                                               ; preds = %.thread
  %21 = tail call ptr @strchr(ptr noundef nonnull dereferenceable(1) %.02232, i32 noundef 42) #14
  %22 = ptrtoint ptr %21 to i64
  %23 = ptrtoint ptr %.02232 to i64
  %24 = sub i64 %22, %23
  %25 = trunc i64 %24 to i32
  %26 = tail call ptr (ptr, ptr, ...) @strvec_pushf(ptr noundef %1, ptr noundef nonnull @.str.2, i32 noundef %25, ptr noundef nonnull %.02232) #13
  br label %28

27:                                               ; preds = %.thread
  tail call void @expand_ref_prefix(ptr noundef %1, ptr noundef nonnull %.02232) #13
  br label %28

28:                                               ; preds = %20, %27, %18, %7
  %indvars.iv.next = add nuw nsw i64 %indvars.iv, 1
  %29 = load i32, ptr %3, align 4, !tbaa !42
  %30 = sext i32 %29 to i64
  %31 = icmp slt i64 %indvars.iv.next, %30
  br i1 %31, label %7, label %._crit_edge, !llvm.loop !52

._crit_edge:                                      ; preds = %28, %2
  ret void
}